Certificate:
    Data:
        Version: 3 (0x2)
        Serial Number: 2 (0x2)
        Signature Algorithm: sha256WithRSAEncryption
        Issuer: DC=Programacion Segura 2023\/2024 Root CA (147875), O=UPNA\/NUP, OU=Grado en Ingenieria Informatica, CN=PS2324 Root CA (147875)
        Validity
            Not Before: Dec  4 10:58:18 2023 GMT
            Not After : Dec  3 10:58:18 2027 GMT
        Subject: O=UPNA\/NUP, OU=Grado en Ingenieria Informatica, CN=Eduardo Ezponda Igea (147875)
        Subject Public Key Info:
            Public Key Algorithm: rsaEncryption
                Public-Key: (2048 bit)
                Modulus:
                    00:9e:79:26:1f:b0:a8:3e:ea:62:fc:44:a2:3b:3c:
                    4d:86:50:c0:a7:66:fe:50:6e:60:a8:45:5e:99:6c:
                    e9:c8:96:94:4f:92:cc:6d:c4:19:ce:3d:80:c5:be:
                    00:f1:be:dd:cd:e9:bd:bd:2a:f6:dc:4c:86:6a:74:
                    8f:5e:d6:8e:ee:aa:7b:8e:f8:e2:6e:e6:64:b8:3b:
                    58:99:75:2d:44:eb:66:22:e1:b0:70:d1:1c:25:54:
                    5a:24:2a:b5:da:c3:26:73:06:a2:a7:13:a3:85:a2:
                    ad:c0:27:8f:71:3c:d5:44:eb:18:9a:0d:d8:f9:6b:
                    90:22:2f:bc:6a:c7:a1:a7:7b:40:26:69:08:13:ab:
                    9b:d0:8f:2a:ef:9a:3a:6e:6c:68:b4:e9:cc:98:6e:
                    03:f5:92:b7:d2:2e:54:23:a6:ab:6b:2a:d0:36:b6:
                    8d:b9:5a:c5:6d:a9:32:7c:78:27:e3:dd:cc:e1:20:
                    28:06:3d:8b:08:f6:6c:f6:39:80:a5:6d:7a:ed:12:
                    14:f8:23:91:f7:b5:0d:ff:ab:d9:22:bb:2f:e9:5d:
                    40:00:ba:88:2c:fc:5e:2b:04:7a:f9:ed:d0:90:fb:
                    51:82:c0:77:c7:be:e6:85:0a:5d:9c:d2:c1:fc:53:
                    49:92:32:ec:38:e9:1f:98:8a:52:26:f7:de:ea:41:
                    ae:83
                Exponent: 65537 (0x10001)
        X509v3 extensions:
            X509v3 Key Usage: critical
                Digital Signature, Key Encipherment
            X509v3 Basic Constraints: 
                CA:FALSE
            X509v3 Extended Key Usage: 
                TLS Web Client Authentication
            X509v3 Subject Key Identifier: 
                7D:0B:55:12:A7:D7:05:AE:5A:CC:8A:76:DF:D5:62:31:8D:44:B0:CD
            X509v3 Authority Key Identifier: 
                3F:BA:A5:58:31:FF:11:E0:8C:9A:B2:8E:37:98:0D:03:69:40:03:E7
    Signature Algorithm: sha256WithRSAEncryption
    Signature Value:
        00:d5:4f:49:6b:49:b8:95:a3:a6:a0:64:dd:14:c8:df:2b:a8:
        1e:bc:e5:b9:cc:5f:d6:7d:af:07:2e:a5:08:a9:91:9c:40:f0:
        63:47:9b:09:9a:91:e1:ad:cc:4d:04:31:fd:08:b8:60:d8:d2:
        c7:6c:2c:e2:aa:a7:f1:c8:6c:dc:58:ba:c0:73:0f:01:da:da:
        e8:5f:f1:aa:4e:55:9c:ef:7b:b6:70:fa:5c:61:0e:d3:9f:63:
        10:6e:0b:ce:9a:75:d1:87:cd:ac:44:7e:b1:92:50:bd:48:38:
        5b:c5:f3:ca:db:51:e5:53:c7:bb:20:71:84:41:6a:6f:be:9d:
        85:de:a0:87:1c:42:d5:07:0a:fe:46:78:19:34:7e:d5:b5:e3:
        ac:1e:6c:6c:c8:05:f3:9e:2a:a1:45:e6:02:33:3d:dc:b5:ea:
        8d:e5:0f:95:53:33:c8:8f:48:7e:8d:50:8a:75:9d:19:d6:a4:
        de:b0:ea:f1:ff:fe:96:bd:3e:f2:34:0e:34:6d:01:71:d1:73:
        21:62:d9:44:39:17:66:2b:e3:63:fb:7e:01:87:7a:3d:28:f3:
        7a:ba:cc:d1:05:b1:a3:67:e9:4e:fd:70:5f:30:4d:8d:f3:06:
        f0:cd:96:45:84:1e:a4:90:7c:95:f9:46:d7:cd:7d:5a:fc:6a:
        4f:b4:25:3c:d8:44:2c:a5:61:cf:da:27:d9:83:0a:32:4b:7c:
        2c:c4:43:20:63:aa:c4:8b:7a:31:af:20:ee:d3:90:46:12:8e:
        ba:90:ef:9d:27:81:59:b2:75:1d:9a:fb:aa:6d:95:af:9a:62:
        b3:05:86:a2:a9:e5:99:ca:97:a3:5e:ea:d7:15:26:53:72:43:
        5f:55:86:7f:71:16:83:02:1a:fe:cb:4f:23:04:50:6c:28:db:
        ad:19:42:35:0a:db:a8:0f:92:38:b0:e5:36:6c:9d:a8:9e:61:
        c6:74:e8:77:a0:02:37:9f:48:dd:71:c9:e5:7f:a7:0d:5f:08:
        76:f5:ce:af:24:1f:93:7f:b2:77:7a:82:45:24:63:e3:69:bb:
        36:46:81:5c:92:0c:84:f8:dc:9b:b3:d6:52:c2:e5:21:d8:b0:
        b6:26:6a:04:13:57:b9:36:b1:e3:a4:82:c3:39:49:55:b8:d8:
        26:fa:f3:d2:ed:19:2b:77:dd:5a:88:b7:a9:c6:fc:b0:be:22:
        0e:8b:f1:ea:df:63:4c:56:b2:68:51:90:99:d8:14:91:ba:5f:
        95:55:de:eb:6b:66:c6:26:77:30:1f:a8:01:6f:06:d3:d4:bf:
        1c:34:09:f1:3c:35:8a:0f:22:66:a1:f6:5f:eb:66:5a:23:36:
        60:03:50:62:45:a1:a4:b8:1a:6d:c5:fd:7b:e2:ea:5b:3f:76:
        a4:62:90:92:94:62:0c:33:d4:2f:de:17:63:46:e8:23:2b:a3:
        07:ab:f3:0f:34:0d:40:3b:8d:d5:c2:ea:2d:72:c4:e4:57:cf:
        b4:52:37:38:35:b3:ac:62:65:7c:ce:81:9a:9f:d7:f4:c1:d7:
        c6:3b:75:95:9e:39:eb:52:75:26:32:68:a1:a0:6a:6e:8f:c5:
        b0:da:0b:da:78:ec:87:d0:22:56:60:39:5b:38:0e:9c:08:f5:
        be:61:ed:03:56:24:d2:43:10:02:4e:64:fc:9e:21:77:75:fe:
        2d:b9:b1:31:5b:03:ab:32:03:23:e6:46:dc:0a:87:e1:f1:3a:
        b1:74:99:bd:fa:00:8e:44:4d:d7:8d:6b:d2:7e:87:93:16:4b:
        08:7a:1e:b9:e3:9e:d7:1d:f7:c1:02:77:a7:e8:dc:e6:5f:68:
        c4:6b:30:d6:90:aa:2a:a3:9b:a6:19:bb:21:45:e8:2b:56:66:
        3b:ec:cc:44:97:87:d7:fa:a1:af:b0:07:c8:0b:7b:2a:28:02:
        ad:2c:b2:6d:98:b2:1a:3d:92:7f:58:85:f5:2e:85:fb:09:06:
        4f:f0:f5:90:e6:8f:4b:1d:c3:11:95:bf:d0:e1:43:94:65:0a:
        c3:4f:9d:f9:b0:a0:e9:a7:c6:d2:69:ce:0d:a1:e4:67:cc:c3:
        c5:cb:8c:42:43:d6:0e:cc:93:54:d3:53:59:aa:63:0c:f7:81:
        3a:00:8d:65:51:33:ac:2b:cc:81:47:af:b0:8a:b6:7d:ed:8c:
        ab:21:5e:4a:2e:e8:46:6a:fa:15:35:db:9a:70:6c:27:fd:5a:
        de:24:27:86:16:a7:e3:47:a6:b6:49:98:e4:2f:ca:a2:09:7c:
        1a:17:82:1a:e1:ab:1b:05:26:4d:34:ab:69:a2:e0:71:38:1b:
        d3:2e:f5:f9:a5:93:21:e6:3c:43:fa:94:88:68:72:0c:06:53:
        09:ee:a5:a7:73:3f:8a:e2:3c:61:e0:9b:e4:4b:19:b5:69:e2:
        3a:56:8c:3b:3a:ff:18:e7:61:40:e7:d3:82:af:85:4c:9b:97:
        37:de:ed:c3:79:88:36:8d:f5:c7:d8:b3:f3:6c:c0:2e:91:c5:
        ca:ab:20:8c:8d:46:f7:ac:78:4e:26:5a:e5:c6:19:36:de:3a:
        0b:0f:79:69:2f:8f:41:56:cc:3f:83:67:45:db:dc:3d:e8:ec:
        61:e7:d3:8e:ce:21:ba:f1:af:8c:c6:9f:72:30:32:76:32:c5:
        cc:22:9a:3d:95:ec:67:4e:e6:fc:cc:70:77:91:48:59:b6:04:
        bc:e7:82:4b:9c:9d:a2:e9:66:e5:77:4f:30:9d:7a:eb
-----BEGIN CERTIFICATE-----
MIIG8jCCAtqgAwIBAgIBAjANBgkqhkiG9w0BAQsFADCBnzE+MDwGCgmSJomT8ixk
ARkWLlByb2dyYW1hY2lvbiBTZWd1cmEgMjAyMy8yMDI0IFJvb3QgQ0EgKDE0Nzg3
NSkxETAPBgNVBAoMCFVQTkEvTlVQMSgwJgYDVQQLDB9HcmFkbyBlbiBJbmdlbmll
cmlhIEluZm9ybWF0aWNhMSAwHgYDVQQDDBdQUzIzMjQgUm9vdCBDQSAoMTQ3ODc1
KTAeFw0yMzEyMDQxMDU4MThaFw0yNzEyMDMxMDU4MThaMGUxETAPBgNVBAoTCFVQ
TkEvTlVQMSgwJgYDVQQLEx9HcmFkbyBlbiBJbmdlbmllcmlhIEluZm9ybWF0aWNh
MSYwJAYDVQQDEx1FZHVhcmRvIEV6cG9uZGEgSWdlYSAoMTQ3ODc1KTCCASIwDQYJ
KoZIhvcNAQEBBQADggEPADCCAQoCggEBAJ55Jh+wqD7qYvxEojs8TYZQwKdm/lBu
YKhFXpls6ciWlE+SzG3EGc49gMW+APG+3c3pvb0q9txMhmp0j17Wju6qe4744m7m
ZLg7WJl1LUTrZiLhsHDRHCVUWiQqtdrDJnMGoqcTo4WircAnj3E81UTrGJoN2Plr
kCIvvGrHoad7QCZpCBOrm9CPKu+aOm5saLTpzJhuA/WSt9IuVCOmq2sq0Da2jbla
xW2pMnx4J+PdzOEgKAY9iwj2bPY5gKVteu0SFPgjkfe1Df+r2SK7L+ldQAC6iCz8
XisEevnt0JD7UYLAd8e+5oUKXZzSwfxTSZIy7DjpH5iKUib33upBroMCAwEAAaNy
MHAwDgYDVR0PAQH/BAQDAgWgMAkGA1UdEwQCMAAwEwYDVR0lBAwwCgYIKwYBBQUH
AwIwHQYDVR0OBBYEFH0LVRKn1wWuWsyKdt/VYjGNRLDNMB8GA1UdIwQYMBaAFD+6
pVgx/xHgjJqyjjeYDQNpQAPnMA0GCSqGSIb3DQEBCwUAA4IEAQAA1U9Ja0m4laOm
oGTdFMjfK6gevOW5zF/Wfa8HLqUIqZGcQPBjR5sJmpHhrcxNBDH9CLhg2NLHbCzi
qqfxyGzcWLrAcw8B2troX/GqTlWc73u2cPpcYQ7Tn2MQbgvOmnXRh82sRH6xklC9
SDhbxfPK21HlU8e7IHGEQWpvvp2F3qCHHELVBwr+RngZNH7VteOsHmxsyAXzniqh
ReYCMz3cteqN5Q+VUzPIj0h+jVCKdZ0Z1qTesOrx//6WvT7yNA40bQFx0XMhYtlE
ORdmK+Nj+34Bh3o9KPN6uszRBbGjZ+lO/XBfME2N8wbwzZZFhB6kkHyV+UbXzX1a
/GpPtCU82EQspWHP2ifZgwoyS3wsxEMgY6rEi3oxryDu05BGEo66kO+dJ4FZsnUd
mvuqbZWvmmKzBYaiqeWZypejXurXFSZTckNfVYZ/cRaDAhr+y08jBFBsKNutGUI1
CtuoD5I4sOU2bJ2onmHGdOh3oAI3n0jdccnlf6cNXwh29c6vJB+Tf7J3eoJFJGPj
abs2RoFckgyE+Nybs9ZSwuUh2LC2JmoEE1e5NrHjpILDOUlVuNgm+vPS7Rkrd91a
iLepxvywviIOi/Hq32NMVrJoUZCZ2BSRul+VVd7ra2bGJncwH6gBbwbT1L8cNAnx
PDWKDyJmofZf62ZaIzZgA1BiRaGkuBptxf174upbP3akYpCSlGIMM9Qv3hdjRugj
K6MHq/MPNA1AO43VwuotcsTkV8+0Ujc4NbOsYmV8zoGan9f0wdfGO3WVnjnrUnUm
MmihoGpuj8Ww2gvaeOyH0CJWYDlbOA6cCPW+Ye0DViTSQxACTmT8niF3df4tubEx
WwOrMgMj5kbcCofh8TqxdJm9+gCORE3XjWvSfoeTFksIeh65457XHffBAnen6Nzm
X2jEazDWkKoqo5umGbshRegrVmY77MxEl4fX+qGvsAfIC3sqKAKtLLJtmLIaPZJ/
WIX1LoX7CQZP8PWQ5o9LHcMRlb/Q4UOUZQrDT535sKDpp8bSac4NoeRnzMPFy4xC
Q9YOzJNU01NZqmMM94E6AI1lUTOsK8yBR6+wirZ97YyrIV5KLuhGavoVNduacGwn
/VreJCeGFqfjR6a2SZjkL8qiCXwaF4Ia4asbBSZNNKtpouBxOBvTLvX5pZMh5jxD
+pSIaHIMBlMJ7qWncz+K4jxh4JvkSxm1aeI6Vow7Ov8Y52FA59OCr4VMm5c33u3D
eYg2jfXH2LPzbMAukcXKqyCMjUb3rHhOJlrlxhk23joLD3lpL49BVsw/g2dF29w9
6Oxh59OOziG68a+Mxp9yMDJ2MsXMIpo9lexnTub8zHB3kUhZtgS854JLnJ2i6Wbl
d08wnXrr
-----END CERTIFICATE-----
